(irep_db
RepDB
p0
(dp1
S'clones'
p2
(lp3
(irep_db
CloneMeta
p4
(dp5
S'rhs'
p6
(irep_db
SideOfClone
p7
(dp8
S'endLine'
p9
S'55'
p10
sS'startLine'
p11
S'49'
p12
sS'fileId'
p13
S'11'
p14
sbsS'cloneId'
p15
S'1'
p16
sS'lhsCommitId'
p17
g16
sS'lhs'
p18
(irep_db
SideOfClone
p19
(dp20
g9
S'43'
p21
sg11
S'39'
p22
sg13
g16
sbsS'metric'
p23
S'5'
p24
sS'rhsCommitId'
p25
g16
sba(irep_db
CloneMeta
p26
(dp27
g6
(irep_db
SideOfClone
p28
(dp29
g9
S'23'
p30
sg11
S'20'
p31
sg13
S'12'
p32
sbsg15
S'2'
p33
sg17
g33
sg18
(irep_db
SideOfClone
p34
(dp35
g9
S'13'
p36
sg11
S'10'
p37
sg13
g33
sbsg23
S'4'
p38
sg25
S'6'
p39
sba(irep_db
CloneMeta
p40
(dp41
g6
(irep_db
SideOfClone
p42
(dp43
g9
S'19'
p44
sg11
S'17'
p45
sg13
S'13'
p46
sbsg15
S'3'
p47
sg17
g47
sg18
(irep_db
SideOfClone
p48
(dp49
g9
S'8'
p50
sg11
g39
sg13
g47
sbsg23
g47
sg25
g47
sba(irep_db
CloneMeta
p51
(dp52
g6
(irep_db
SideOfClone
p53
(dp54
g9
S'30'
p55
sg11
S'23'
p56
sg13
S'14'
p57
sbsg15
g38
sg17
g38
sg18
(irep_db
SideOfClone
p58
(dp59
g9
S'22'
p60
sg11
S'15'
p61
sg13
g38
sbsg23
g39
sg25
g33
sba(irep_db
CloneMeta
p62
(dp63
g6
(irep_db
SideOfClone
p64
(dp65
g9
S'30'
p66
sg11
S'22'
p67
sg13
S'16'
p68
sbsg15
g24
sg17
g24
sg18
(irep_db
SideOfClone
p69
(dp70
g9
S'18'
p71
sg11
S'7'
p72
sg13
g16
sbsg23
g72
sg25
S'10'
p73
sba(irep_db
CloneMeta
p74
(dp75
g6
(irep_db
SideOfClone
p76
(dp77
g9
S'30'
p78
sg11
S'20'
p79
sg13
S'12'
p80
sbsg15
g39
sg17
g39
sg18
(irep_db
SideOfClone
p81
(dp82
g9
S'30'
p83
sg11
S'15'
p84
sg13
g38
sbsg23
S'9'
p85
sg25
g85
sba(irep_db
CloneMeta
p86
(dp87
g6
(irep_db
SideOfClone
p88
(dp89
g9
S'30'
p90
sg11
S'20'
p91
sg13
S'15'
p92
sbsg15
g72
sg17
g72
sg18
(irep_db
SideOfClone
p93
(dp94
g9
S'20'
p95
sg11
S'10'
p96
sg13
g24
sbsg23
S'10'
p97
sg25
g38
sba(irep_db
CloneMeta
p98
(dp99
g6
(irep_db
SideOfClone
p100
(dp101
g9
S'15'
p102
sg11
S'10'
p103
sg13
S'12'
p104
sbsg15
g50
sg17
g50
sg18
(irep_db
SideOfClone
p105
(dp106
g9
S'15'
p107
sg11
S'10'
p108
sg13
g33
sbsg23
g24
sg25
S'11'
p109
sba(irep_db
CloneMeta
p110
(dp111
g6
(irep_db
SideOfClone
p112
(dp113
g9
g85
sg11
g50
sg13
S'14'
p114
sbsg15
g85
sg17
g85
sg18
(irep_db
SideOfClone
p115
(dp116
g9
g50
sg11
g72
sg13
g39
sbsg23
g33
sg25
g50
sba(irep_db
CloneMeta
p117
(dp118
g6
(irep_db
SideOfClone
p119
(dp120
g9
S'30'
p121
sg11
S'20'
p122
sg13
S'16'
p123
sbsg15
S'10'
p124
sg17
S'10'
p125
sg18
(irep_db
SideOfClone
p126
(dp127
g9
S'30'
p128
sg11
S'17'
p129
sg13
g39
sbsg23
S'12'
p130
sg25
g24
sba(irep_db
CloneMeta
p131
(dp132
g6
(irep_db
SideOfClone
p133
(dp134
g9
S'30'
p135
sg11
S'27'
p136
sg13
S'15'
p137
sbsg15
S'11'
p138
sg17
S'11'
p139
sg18
(irep_db
SideOfClone
p140
(dp141
g9
g50
sg11
g39
sg13
g47
sbsg23
g47
sg25
S'12'
p142
sba(irep_db
CloneMeta
p143
(dp144
g6
(irep_db
SideOfClone
p145
(dp146
g9
g38
sg11
g47
sg13
S'15'
p147
sbsg15
S'12'
p148
sg17
S'12'
p149
sg18
(irep_db
SideOfClone
p150
(dp151
g9
S'11'
p152
sg11
S'10'
p153
sg13
g24
sbsg23
g33
sg25
g72
sba(irep_db
CloneMeta
p154
(dp155
g6
(irep_db
SideOfClone
p156
(dp157
g9
S'12'
p158
sg11
S'10'
p159
sg13
S'12'
p160
sbsg15
S'13'
p161
sg17
S'11'
p162
sg18
(irep_db
SideOfClone
p163
(dp164
g9
g50
sg11
g39
sg13
g47
sbsg23
g16
sg25
S'11'
p165
sba(irep_db
CloneMeta
p166
(dp167
g6
(irep_db
SideOfClone
p168
(dp169
g9
S'33'
p170
sg11
S'29'
p171
sg13
S'14'
p172
sbsg15
S'14'
p173
sg17
g24
sg18
(irep_db
SideOfClone
p174
(dp175
g9
S'33'
p176
sg11
S'29'
p177
sg13
g16
sbsg23
g24
sg25
g50
sba(irep_db
CloneMeta
p178
(dp179
g6
(irep_db
SideOfClone
p180
(dp181
g9
S'53'
p182
sg11
S'49'
p183
sg13
S'11'
p184
sbsg15
S'15'
p185
sg17
g33
sg18
(irep_db
SideOfClone
p186
(dp187
g9
S'16'
p188
sg11
S'13'
p189
sg13
g33
sbsg23
g38
sg25
g24
sba(irep_db
CloneMeta
p190
(dp191
g6
(irep_db
SideOfClone
p192
(dp193
g9
S'24'
p194
sg11
S'22'
p195
sg13
S'15'
p196
sbsg15
S'16'
p197
sg17
g72
sg18
(irep_db
SideOfClone
p198
(dp199
g9
S'14'
p200
sg11
S'12'
p201
sg13
g24
sbsg23
g47
sg25
S'12'
p202
sba(irep_db
CloneMeta
p203
(dp204
g6
(irep_db
SideOfClone
p205
(dp206
g9
S'25'
p207
sg11
S'20'
p208
sg13
S'15'
p209
sbsg15
S'17'
p210
sg17
g50
sg18
(irep_db
SideOfClone
p211
(dp212
g9
S'25'
p213
sg11
S'20'
p214
sg13
g33
sbsg23
g39
sg25
g72
sba(irep_db
CloneMeta
p215
(dp216
g6
(irep_db
SideOfClone
p217
(dp218
g9
S'10'
p219
sg11
g47
sg13
S'11'
p220
sbsg15
S'18'
p221
sg17
g16
sg18
(irep_db
SideOfClone
p222
(dp223
g9
S'25'
p224
sg11
S'19'
p225
sg13
g16
sbsg23
g72
sg25
g24
sba(irep_db
CloneMeta
p226
(dp227
g6
(irep_db
SideOfClone
p228
(dp229
g9
S'13'
p230
sg11
g24
sg13
S'16'
p231
sbsg15
S'19'
p232
sg17
g39
sg18
(irep_db
SideOfClone
p233
(dp234
g9
S'13'
p235
sg11
g24
sg13
g38
sbsg23
g85
sg25
S'10'
p236
sba(irep_db
CloneMeta
p237
(dp238
g6
(irep_db
SideOfClone
p239
(dp240
g9
S'23'
p241
sg11
S'13'
p242
sg13
S'11'
p243
sbsg15
S'20'
p244
sg17
g47
sg18
(irep_db
SideOfClone
p245
(dp246
g9
S'16'
p247
sg11
g39
sg13
g47
sbsg23
S'10'
p248
sg25
g24
sba(irep_db
CloneMeta
p249
(dp250
g6
(irep_db
SideOfClone
p251
(dp252
g9
S'19'
p253
sg11
S'15'
p254
sg13
S'13'
p255
sbsg15
S'21'
p256
sg17
g33
sg18
(irep_db
SideOfClone
p257
(dp258
g9
g85
sg11
g24
sg13
g33
sbsg23
g24
sg25
g33
sba(irep_db
CloneMeta
p259
(dp260
g6
(irep_db
SideOfClone
p261
(dp262
g9
S'17'
p263
sg11
S'15'
p264
sg13
S'15'
p265
sbsg15
S'22'
p266
sg17
S'10'
p267
sg18
(irep_db
SideOfClone
p268
(dp269
g9
S'11'
p270
sg11
g85
sg13
g39
sbsg23
g33
sg25
g72
sba(irep_db
CloneMeta
p271
(dp272
g6
(irep_db
SideOfClone
p273
(dp274
g9
S'20'
p275
sg11
g50
sg13
g50
sbsg15
S'23'
p276
sg17
g85
sg18
(irep_db
SideOfClone
p277
(dp278
g9
S'16'
p279
sg11
g38
sg13
g39
sbsg23
S'12'
p280
sg25
g50
sba(irep_db
CloneMeta
p281
(dp282
g6
(irep_db
SideOfClone
p283
(dp284
g9
g50
sg11
g39
sg13
S'11'
p285
sbsg15
S'24'
p286
sg17
g38
sg18
(irep_db
SideOfClone
p287
(dp288
g9
S'12'
p289
sg11
S'10'
p290
sg13
g38
sbsg23
g47
sg25
g16
sba(irep_db
CloneMeta
p291
(dp292
g6
(irep_db
SideOfClone
p293
(dp294
g9
S'11'
p295
sg11
S'10'
p296
sg13
S'12'
p297
sbsg15
S'25'
p298
sg17
S'11'
p299
sg18
(irep_db
SideOfClone
p300
(dp301
g9
g72
sg11
g39
sg13
g47
sbsg23
g33
sg25
g39
sba(irep_db
CloneMeta
p302
(dp303
g6
(irep_db
SideOfClone
p304
(dp305
g9
S'21'
p306
sg11
S'10'
p307
sg13
S'13'
p308
sbsg15
S'26'
p309
sg17
g50
sg18
(irep_db
SideOfClone
p310
(dp311
g9
S'21'
p312
sg11
S'10'
p313
sg13
g33
sbsg23
S'11'
p314
sg25
g47
sba(irep_db
CloneMeta
p315
(dp316
g6
(irep_db
SideOfClone
p317
(dp318
g9
S'15'
p319
sg11
S'13'
p320
sg13
S'13'
p321
sbsg15
S'27'
p322
sg17
g24
sg18
(irep_db
SideOfClone
p323
(dp324
g9
g24
sg11
g47
sg13
g16
sbsg23
g47
sg25
g33
sba(irep_db
CloneMeta
p325
(dp326
g6
(irep_db
SideOfClone
p327
(dp328
g9
S'27'
p329
sg11
S'20'
p330
sg13
S'16'
p331
sbsg15
S'28'
p332
sg17
S'12'
p333
sg18
(irep_db
SideOfClone
p334
(dp335
g9
g85
sg11
g47
sg13
g24
sbsg23
g39
sg25
S'10'
p336
sba(irep_db
CloneMeta
p337
(dp338
g6
(irep_db
SideOfClone
p339
(dp340
g9
S'28'
p341
sg11
S'20'
p342
sg13
S'13'
p343
sbsg15
S'29'
p344
sg17
g72
sg18
(irep_db
SideOfClone
p345
(dp346
g9
S'18'
p347
sg11
S'10'
p348
sg13
g24
sbsg23
g85
sg25
g85
sba(irep_db
CloneMeta
p349
(dp350
g6
(irep_db
SideOfClone
p351
(dp352
g9
g85
sg11
g47
sg13
S'14'
p353
sbsg15
S'30'
p354
sg17
g24
sg18
(irep_db
SideOfClone
p355
(dp356
g9
g50
sg11
g33
sg13
g16
sbsg23
g72
sg25
g38
sbasS'commits'
p357
(dp358
(S'0'
p359
g33
tp360
(irep_db
CommitMeta
p361
(dp362
S'date'
p363
S'03/01/01'
p364
sS'commitId'
p365
g33
sS'projId'
p366
g359
sS'files'
p367
(dp368
g33
(irep_db
FileMeta
p369
(dp370
S'numPorts'
p371
S'22'
p372
sS'diffFile'
p373
S'net_diff.c'
p374
sS'origFile'
p375
S'net.c'
p376
sS'numEdits'
p377
S'30'
p378
sbssS'author'
p379
S'Parker'
p380
sbs(g16
g39
tp381
(irep_db
CommitMeta
p382
(dp383
g363
S'12/01/01'
p384
sg365
g39
sg366
g16
sg367
(dp385
S'12'
p386
(irep_db
FileMeta
p387
(dp388
g371
S'24'
p389
sg373
S'dev_diff.c'
p390
sg375
S'dev.c'
p391
sg377
S'34'
p392
sbssg379
S'Harris'
p393
sbs(g359
S'12'
p394
tp395
(irep_db
CommitMeta
p396
(dp397
g363
S'12/01/02'
p398
sg365
g394
sg366
g359
sg367
(dp399
g24
(irep_db
FileMeta
p400
(dp401
g371
S'12'
p402
sg373
S'crypt_diff.c'
p403
sg375
S'crypt.c'
p404
sg377
S'22'
p405
sbssg379
S'Hall'
p406
sbs(g359
g72
tp407
(irep_db
CommitMeta
p408
(dp409
g363
S'02/01/02'
p410
sg365
g72
sg366
g359
sg367
(dp411
g24
g400
ssg379
S'Parker'
p412
sbs(g16
g33
tp413
(irep_db
CommitMeta
p414
(dp415
g363
S'04/01/01'
p416
sg365
g33
sg366
g16
sg367
(dp417
S'13'
p418
(irep_db
FileMeta
p419
(dp420
g371
S'19'
p421
sg373
S'libcrypt_diff.c'
p422
sg375
S'libcrypt.c'
p423
sg377
S'32'
p424
sbssg379
S'White'
p425
sbs(g359
g47
tp426
(irep_db
CommitMeta
p427
(dp428
g363
S'05/01/01'
p429
sg365
g47
sg366
g359
sg367
(dp430
g47
(irep_db
FileMeta
p431
(dp432
g371
S'10'
p433
sg373
S'arch_diff.c'
p434
sg375
S'arch.c'
p435
sg377
S'16'
p436
sbssg379
S'Clark'
p437
sbs(g16
S'12'
p438
tp439
(irep_db
CommitMeta
p440
(dp441
g363
S'01/01/03'
p442
sg365
g438
sg366
g16
sg367
(dp443
S'15'
p444
(irep_db
FileMeta
p445
(dp446
g371
S'20'
p447
sg373
S'ndis_diff.c'
p448
sg375
S'ndis.c'
p449
sg377
S'25'
p450
sbssg379
S'Johnson'
p451
sbs(g359
g38
tp452
(irep_db
CommitMeta
p453
(dp454
g363
S'07/01/01'
p455
sg365
g38
sg366
g359
sg367
(dp456
g38
(irep_db
FileMeta
p457
(dp458
g371
S'44'
p459
sg373
S'dev_diff.c'
p460
sg375
S'dev.c'
p461
sg377
S'59'
p462
sbssg379
S'Green'
p463
sbs(g16
g24
tp464
(irep_db
CommitMeta
p465
(dp466
g363
S'10/01/01'
p467
sg365
g24
sg366
g16
sg367
(dp468
S'11'
p469
(irep_db
FileMeta
p470
(dp471
g371
S'50'
p472
sg373
S'libsys_diff.c'
p473
sg375
S'libsys.c'
p474
sg377
S'56'
p475
sbssg379
S'Martin'
p476
sbs(g16
g16
tp477
(irep_db
CommitMeta
p478
(dp479
g363
S'02/01/01'
p480
sg365
g16
sg366
g16
sg367
(dp481
S'11'
p482
g470
ssg379
S'Lee'
p483
sbs(g359
S'10'
p484
tp485
(irep_db
CommitMeta
p486
(dp487
g363
S'08/01/02'
p488
sg365
g484
sg366
g359
sg367
(dp489
g39
(irep_db
FileMeta
p490
(dp491
g371
S'50'
p492
sg373
S'libsys_diff.c'
p493
sg375
S'libsys.c'
p494
sg377
S'54'
p495
sbssg379
S'Moore'
p496
sbs(g359
g24
tp497
(irep_db
CommitMeta
p498
(dp499
g363
S'09/01/01'
p500
sg365
g24
sg366
g359
sg367
(dp501
g16
(irep_db
FileMeta
p502
(dp503
g371
S'17'
p504
sg373
S'bt_diff.c'
p505
sg375
S'bt.c'
p506
sg377
S'25'
p507
sbssg379
S'Moore'
p508
sbs(g16
S'11'
p509
tp510
(irep_db
CommitMeta
p511
(dp512
g363
S'11/01/02'
p513
sg365
g509
sg366
g16
sg367
(dp514
S'12'
p515
g387
ssg379
S'Lee'
p516
sbs(g16
g38
tp517
(irep_db
CommitMeta
p518
(dp519
g363
S'08/01/01'
p520
sg365
g38
sg366
g16
sg367
(dp521
S'14'
p522
(irep_db
FileMeta
p523
(dp524
g371
g24
sg373
S'libarch_diff.c'
p525
sg375
S'libarch.c'
p526
sg377
S'15'
p527
sbssg379
S'Johnson'
p528
sbs(g359
g50
tp529
(irep_db
CommitMeta
p530
(dp531
g363
S'04/01/02'
p532
sg365
g50
sg366
g359
sg367
(dp533
g33
g369
ssg379
S'Garcia'
p534
sbs(g359
g16
tp535
(irep_db
CommitMeta
p536
(dp537
g363
S'01/01/01'
p538
sg365
g16
sg366
g359
sg367
(dp539
g16
g502
ssg379
S'alex'
p540
sbs(g16
g85
tp541
(irep_db
CommitMeta
p542
(dp543
g363
S'07/01/02'
p544
sg365
g85
sg366
g16
sg367
(dp545
S'13'
p546
g419
ssg379
S'White'
p547
sbs(g359
S'11'
p548
tp549
(irep_db
CommitMeta
p550
(dp551
g363
S'10/01/02'
p552
sg365
g548
sg366
g359
sg367
(dp553
g47
g431
ssg379
S'Green'
p554
sbs(g16
S'10'
p555
tp556
(irep_db
CommitMeta
p557
(dp558
g363
S'09/01/02'
p559
sg365
g555
sg366
g16
sg367
(dp560
S'16'
p561
(irep_db
FileMeta
p562
(dp563
g371
S'45'
p564
sg373
S'bt_diff.c'
p565
sg375
S'bt.c'
p566
sg377
S'54'
p567
sbssg379
S'Martin'
p568
sbs(g16
g72
tp569
(irep_db
CommitMeta
p570
(dp571
g363
S'03/01/02'
p572
sg365
g72
sg366
g16
sg367
(dp573
S'15'
p574
g445
ssg379
S'Scott'
p575
sbs(g359
g85
tp576
(irep_db
CommitMeta
p577
(dp578
g363
S'06/01/02'
p579
sg365
g85
sg366
g359
sg367
(dp580
g39
g490
ssg379
S'Clark'
p581
sbs(g359
g39
tp582
(irep_db
CommitMeta
p583
(dp584
g363
S'11/01/01'
p585
sg365
g39
sg366
g359
sg367
(dp586
g38
g457
ssg379
S'Hall'
p587
sbs(g16
g50
tp588
(irep_db
CommitMeta
p589
(dp590
g363
S'05/01/02'
p591
sg365
g50
sg366
g16
sg367
(dp592
S'14'
p593
g523
ssg379
S'Scott'
p594
sbs(g16
g47
tp595
(irep_db
CommitMeta
p596
(dp597
g363
S'06/01/01'
p598
sg365
g47
sg366
g16
sg367
(dp599
S'13'
p600
g419
ssg379
S'Harris'
p601
sbssb.