(irep_db
RepDB
p0
(dp1
S'clones'
p2
(lp3
(irep_db
CloneMeta
p4
(dp5
S'rhs'
p6
(irep_db
SideOfClone
p7
(dp8
S'endLine'
p9
S'55'
p10
sS'startLine'
p11
S'49'
p12
sS'fileId'
p13
S'11'
p14
sbsS'cloneId'
p15
S'1'
p16
sS'lhsCommitId'
p17
(S'proj0'
p18
g16
tp19
sS'lhs'
p20
(irep_db
SideOfClone
p21
(dp22
g9
S'43'
p23
sg11
S'39'
p24
sg13
g16
sbsS'metric'
p25
S'5'
p26
sS'rhsCommitId'
p27
(S'proj1'
p28
g16
tp29
sba(irep_db
CloneMeta
p30
(dp31
g6
(irep_db
SideOfClone
p32
(dp33
g9
S'23'
p34
sg11
S'20'
p35
sg13
S'12'
p36
sbsg15
S'2'
p37
sg17
(g18
g37
tp38
sg20
(irep_db
SideOfClone
p39
(dp40
g9
S'13'
p41
sg11
S'10'
p42
sg13
g37
sbsg25
S'4'
p43
sg27
(g28
S'6'
p44
tp45
sba(irep_db
CloneMeta
p46
(dp47
g6
(irep_db
SideOfClone
p48
(dp49
g9
S'19'
p50
sg11
S'17'
p51
sg13
S'13'
p52
sbsg15
S'3'
p53
sg17
(g18
g53
tp54
sg20
(irep_db
SideOfClone
p55
(dp56
g9
S'8'
p57
sg11
g44
sg13
g53
sbsg25
g53
sg27
(g28
g53
tp58
sba(irep_db
CloneMeta
p59
(dp60
g6
(irep_db
SideOfClone
p61
(dp62
g9
S'30'
p63
sg11
S'23'
p64
sg13
S'14'
p65
sbsg15
g43
sg17
(g18
g43
tp66
sg20
(irep_db
SideOfClone
p67
(dp68
g9
S'22'
p69
sg11
S'15'
p70
sg13
g43
sbsg25
g44
sg27
(g28
g37
tp71
sba(irep_db
CloneMeta
p72
(dp73
g6
(irep_db
SideOfClone
p74
(dp75
g9
S'30'
p76
sg11
S'22'
p77
sg13
S'16'
p78
sbsg15
g26
sg17
(g18
g26
tp79
sg20
(irep_db
SideOfClone
p80
(dp81
g9
S'18'
p82
sg11
S'7'
p83
sg13
g16
sbsg25
g83
sg27
(g28
S'10'
p84
tp85
sba(irep_db
CloneMeta
p86
(dp87
g6
(irep_db
SideOfClone
p88
(dp89
g9
S'30'
p90
sg11
S'20'
p91
sg13
S'12'
p92
sbsg15
g44
sg17
(g18
g44
tp93
sg20
(irep_db
SideOfClone
p94
(dp95
g9
S'30'
p96
sg11
S'15'
p97
sg13
g43
sbsg25
S'9'
p98
sg27
(g28
g98
tp99
sba(irep_db
CloneMeta
p100
(dp101
g6
(irep_db
SideOfClone
p102
(dp103
g9
S'30'
p104
sg11
S'20'
p105
sg13
S'15'
p106
sbsg15
g83
sg17
(g18
g83
tp107
sg20
(irep_db
SideOfClone
p108
(dp109
g9
S'20'
p110
sg11
S'10'
p111
sg13
g26
sbsg25
S'10'
p112
sg27
(g28
g43
tp113
sba(irep_db
CloneMeta
p114
(dp115
g6
(irep_db
SideOfClone
p116
(dp117
g9
S'15'
p118
sg11
S'10'
p119
sg13
S'12'
p120
sbsg15
g57
sg17
(g18
g57
tp121
sg20
(irep_db
SideOfClone
p122
(dp123
g9
S'15'
p124
sg11
S'10'
p125
sg13
g37
sbsg25
g26
sg27
(g28
S'11'
p126
tp127
sba(irep_db
CloneMeta
p128
(dp129
g6
(irep_db
SideOfClone
p130
(dp131
g9
g98
sg11
g57
sg13
S'14'
p132
sbsg15
g98
sg17
(g18
g98
tp133
sg20
(irep_db
SideOfClone
p134
(dp135
g9
g57
sg11
g83
sg13
g44
sbsg25
g37
sg27
(g28
g57
tp136
sba(irep_db
CloneMeta
p137
(dp138
g6
(irep_db
SideOfClone
p139
(dp140
g9
S'30'
p141
sg11
S'20'
p142
sg13
S'16'
p143
sbsg15
S'10'
p144
sg17
(g18
S'10'
p145
tp146
sg20
(irep_db
SideOfClone
p147
(dp148
g9
S'30'
p149
sg11
S'17'
p150
sg13
g44
sbsg25
S'12'
p151
sg27
(g28
g26
tp152
sba(irep_db
CloneMeta
p153
(dp154
g6
(irep_db
SideOfClone
p155
(dp156
g9
S'30'
p157
sg11
S'27'
p158
sg13
S'15'
p159
sbsg15
S'11'
p160
sg17
(g18
S'11'
p161
tp162
sg20
(irep_db
SideOfClone
p163
(dp164
g9
g57
sg11
g44
sg13
g53
sbsg25
g53
sg27
(g28
S'12'
p165
tp166
sba(irep_db
CloneMeta
p167
(dp168
g6
(irep_db
SideOfClone
p169
(dp170
g9
g43
sg11
g53
sg13
S'15'
p171
sbsg15
S'12'
p172
sg17
(g18
S'12'
p173
tp174
sg20
(irep_db
SideOfClone
p175
(dp176
g9
S'11'
p177
sg11
S'10'
p178
sg13
g26
sbsg25
g37
sg27
(g28
g83
tp179
sba(irep_db
CloneMeta
p180
(dp181
g6
(irep_db
SideOfClone
p182
(dp183
g9
S'12'
p184
sg11
S'10'
p185
sg13
S'12'
p186
sbsg15
S'13'
p187
sg17
(g18
S'11'
p188
tp189
sg20
(irep_db
SideOfClone
p190
(dp191
g9
g57
sg11
g44
sg13
g53
sbsg25
g16
sg27
(g28
S'11'
p192
tp193
sba(irep_db
CloneMeta
p194
(dp195
g6
(irep_db
SideOfClone
p196
(dp197
g9
S'33'
p198
sg11
S'29'
p199
sg13
S'14'
p200
sbsg15
S'14'
p201
sg17
(g18
g26
tp202
sg20
(irep_db
SideOfClone
p203
(dp204
g9
S'33'
p205
sg11
S'29'
p206
sg13
g16
sbsg25
g26
sg27
(g28
g57
tp207
sba(irep_db
CloneMeta
p208
(dp209
g6
(irep_db
SideOfClone
p210
(dp211
g9
S'53'
p212
sg11
S'49'
p213
sg13
S'11'
p214
sbsg15
S'15'
p215
sg17
(g18
g37
tp216
sg20
(irep_db
SideOfClone
p217
(dp218
g9
S'16'
p219
sg11
S'13'
p220
sg13
g37
sbsg25
g43
sg27
(g28
g26
tp221
sba(irep_db
CloneMeta
p222
(dp223
g6
(irep_db
SideOfClone
p224
(dp225
g9
S'24'
p226
sg11
S'22'
p227
sg13
S'15'
p228
sbsg15
S'16'
p229
sg17
(g18
g83
tp230
sg20
(irep_db
SideOfClone
p231
(dp232
g9
S'14'
p233
sg11
S'12'
p234
sg13
g26
sbsg25
g53
sg27
(g28
S'12'
p235
tp236
sba(irep_db
CloneMeta
p237
(dp238
g6
(irep_db
SideOfClone
p239
(dp240
g9
S'25'
p241
sg11
S'20'
p242
sg13
S'15'
p243
sbsg15
S'17'
p244
sg17
(g18
g57
tp245
sg20
(irep_db
SideOfClone
p246
(dp247
g9
S'25'
p248
sg11
S'20'
p249
sg13
g37
sbsg25
g44
sg27
(g28
g83
tp250
sba(irep_db
CloneMeta
p251
(dp252
g6
(irep_db
SideOfClone
p253
(dp254
g9
S'10'
p255
sg11
g53
sg13
S'11'
p256
sbsg15
S'18'
p257
sg17
(g18
g16
tp258
sg20
(irep_db
SideOfClone
p259
(dp260
g9
S'25'
p261
sg11
S'19'
p262
sg13
g16
sbsg25
g83
sg27
(g28
g26
tp263
sba(irep_db
CloneMeta
p264
(dp265
g6
(irep_db
SideOfClone
p266
(dp267
g9
S'13'
p268
sg11
g26
sg13
S'16'
p269
sbsg15
S'19'
p270
sg17
(g18
g44
tp271
sg20
(irep_db
SideOfClone
p272
(dp273
g9
S'13'
p274
sg11
g26
sg13
g43
sbsg25
g98
sg27
(g28
S'10'
p275
tp276
sba(irep_db
CloneMeta
p277
(dp278
g6
(irep_db
SideOfClone
p279
(dp280
g9
S'23'
p281
sg11
S'13'
p282
sg13
S'11'
p283
sbsg15
S'20'
p284
sg17
(g18
g53
tp285
sg20
(irep_db
SideOfClone
p286
(dp287
g9
S'16'
p288
sg11
g44
sg13
g53
sbsg25
S'10'
p289
sg27
(g28
g26
tp290
sba(irep_db
CloneMeta
p291
(dp292
g6
(irep_db
SideOfClone
p293
(dp294
g9
S'19'
p295
sg11
S'15'
p296
sg13
S'13'
p297
sbsg15
S'21'
p298
sg17
(g18
g37
tp299
sg20
(irep_db
SideOfClone
p300
(dp301
g9
g98
sg11
g26
sg13
g37
sbsg25
g26
sg27
(g28
g37
tp302
sba(irep_db
CloneMeta
p303
(dp304
g6
(irep_db
SideOfClone
p305
(dp306
g9
S'17'
p307
sg11
S'15'
p308
sg13
S'15'
p309
sbsg15
S'22'
p310
sg17
(g18
S'10'
p311
tp312
sg20
(irep_db
SideOfClone
p313
(dp314
g9
S'11'
p315
sg11
g98
sg13
g44
sbsg25
g37
sg27
(g28
g83
tp316
sba(irep_db
CloneMeta
p317
(dp318
g6
(irep_db
SideOfClone
p319
(dp320
g9
S'20'
p321
sg11
g57
sg13
g57
sbsg15
S'23'
p322
sg17
(g18
g98
tp323
sg20
(irep_db
SideOfClone
p324
(dp325
g9
S'16'
p326
sg11
g43
sg13
g44
sbsg25
S'12'
p327
sg27
(g28
g57
tp328
sba(irep_db
CloneMeta
p329
(dp330
g6
(irep_db
SideOfClone
p331
(dp332
g9
g57
sg11
g44
sg13
S'11'
p333
sbsg15
S'24'
p334
sg17
(g18
g43
tp335
sg20
(irep_db
SideOfClone
p336
(dp337
g9
S'12'
p338
sg11
S'10'
p339
sg13
g43
sbsg25
g53
sg27
(g28
g16
tp340
sba(irep_db
CloneMeta
p341
(dp342
g6
(irep_db
SideOfClone
p343
(dp344
g9
S'11'
p345
sg11
S'10'
p346
sg13
S'12'
p347
sbsg15
S'25'
p348
sg17
(g18
S'11'
p349
tp350
sg20
(irep_db
SideOfClone
p351
(dp352
g9
g83
sg11
g44
sg13
g53
sbsg25
g37
sg27
(g28
g44
tp353
sba(irep_db
CloneMeta
p354
(dp355
g6
(irep_db
SideOfClone
p356
(dp357
g9
S'21'
p358
sg11
S'10'
p359
sg13
S'13'
p360
sbsg15
S'26'
p361
sg17
(g18
g57
tp362
sg20
(irep_db
SideOfClone
p363
(dp364
g9
S'21'
p365
sg11
S'10'
p366
sg13
g37
sbsg25
S'11'
p367
sg27
(g28
g53
tp368
sba(irep_db
CloneMeta
p369
(dp370
g6
(irep_db
SideOfClone
p371
(dp372
g9
S'15'
p373
sg11
S'13'
p374
sg13
S'13'
p375
sbsg15
S'27'
p376
sg17
(g18
g26
tp377
sg20
(irep_db
SideOfClone
p378
(dp379
g9
g26
sg11
g53
sg13
g16
sbsg25
g53
sg27
(g28
g37
tp380
sba(irep_db
CloneMeta
p381
(dp382
g6
(irep_db
SideOfClone
p383
(dp384
g9
S'27'
p385
sg11
S'20'
p386
sg13
S'16'
p387
sbsg15
S'28'
p388
sg17
(g18
S'12'
p389
tp390
sg20
(irep_db
SideOfClone
p391
(dp392
g9
g98
sg11
g53
sg13
g26
sbsg25
g44
sg27
(g28
S'10'
p393
tp394
sba(irep_db
CloneMeta
p395
(dp396
g6
(irep_db
SideOfClone
p397
(dp398
g9
S'28'
p399
sg11
S'20'
p400
sg13
S'13'
p401
sbsg15
S'29'
p402
sg17
(g18
g83
tp403
sg20
(irep_db
SideOfClone
p404
(dp405
g9
S'18'
p406
sg11
S'10'
p407
sg13
g26
sbsg25
g98
sg27
(g28
g98
tp408
sba(irep_db
CloneMeta
p409
(dp410
g6
(irep_db
SideOfClone
p411
(dp412
g9
g98
sg11
g53
sg13
S'14'
p413
sbsg15
S'30'
p414
sg17
(g18
g26
tp415
sg20
(irep_db
SideOfClone
p416
(dp417
g9
g57
sg11
g37
sg13
g16
sbsg25
g83
sg27
(g28
g43
tp418
sbasS'commits'
p419
(dp420
(S'proj1'
p421
g43
tp422
(irep_db
CommitMeta
p423
(dp424
S'date'
p425
cdatetime
datetime
p426
(S'\x07\xd1\x08\x01\x00\x00\x00\x00\x00\x00'
p427
tp428
Rp429
sS'commitId'
p430
(g421
g43
tp431
sS'projId'
p432
g421
sS'files'
p433
(dp434
S'14'
p435
(irep_db
FileMeta
p436
(dp437
S'numPorts'
p438
g26
sS'diffFile'
p439
S'libarch_diff.c'
p440
sS'origFile'
p441
S'libarch.c'
p442
sS'numEdits'
p443
S'15'
p444
sbssS'author'
p445
S'Johnson'
p446
sbs(S'proj1'
p447
S'10'
p448
tp449
(irep_db
CommitMeta
p450
(dp451
g425
g426
(S'\x07\xd2\t\x01\x00\x00\x00\x00\x00\x00'
p452
tp453
Rp454
sg430
(g447
g448
tp455
sg432
g447
sg433
(dp456
S'16'
p457
(irep_db
FileMeta
p458
(dp459
g438
S'45'
p460
sg439
S'bt_diff.c'
p461
sg441
S'bt.c'
p462
sg443
S'54'
p463
sbssg445
S'Martin'
p464
sbs(S'proj0'
p465
S'11'
p466
tp467
(irep_db
CommitMeta
p468
(dp469
g425
g426
(S'\x07\xd2\n\x01\x00\x00\x00\x00\x00\x00'
p470
tp471
Rp472
sg430
(g465
g466
tp473
sg432
g465
sg433
(dp474
g53
(irep_db
FileMeta
p475
(dp476
g438
S'10'
p477
sg439
S'arch_diff.c'
p478
sg441
S'arch.c'
p479
sg443
S'16'
p480
sbssg445
S'Green'
p481
sbs(S'proj0'
p482
g43
tp483
(irep_db
CommitMeta
p484
(dp485
g425
g426
(S'\x07\xd1\x07\x01\x00\x00\x00\x00\x00\x00'
p486
tp487
Rp488
sg430
(g482
g43
tp489
sg432
g482
sg433
(dp490
g43
(irep_db
FileMeta
p491
(dp492
g438
S'44'
p493
sg439
S'dev_diff.c'
p494
sg441
S'dev.c'
p495
sg443
S'59'
p496
sbssg445
S'Green'
p497
sbs(S'proj1'
p498
g57
tp499
(irep_db
CommitMeta
p500
(dp501
g425
g426
(S'\x07\xd2\x05\x01\x00\x00\x00\x00\x00\x00'
p502
tp503
Rp504
sg430
(g498
g57
tp505
sg432
g498
sg433
(dp506
S'14'
p507
g436
ssg445
S'Scott'
p508
sbs(S'proj1'
p509
g16
tp510
(irep_db
CommitMeta
p511
(dp512
g425
g426
(S'\x07\xd1\x02\x01\x00\x00\x00\x00\x00\x00'
p513
tp514
Rp515
sg430
(g509
g16
tp516
sg432
g509
sg433
(dp517
S'11'
p518
(irep_db
FileMeta
p519
(dp520
g438
S'50'
p521
sg439
S'libsys_diff.c'
p522
sg441
S'libsys.c'
p523
sg443
S'56'
p524
sbssg445
S'Lee'
p525
sbs(S'proj0'
p526
g98
tp527
(irep_db
CommitMeta
p528
(dp529
g425
g426
(S'\x07\xd2\x06\x01\x00\x00\x00\x00\x00\x00'
p530
tp531
Rp532
sg430
(g526
g98
tp533
sg432
g526
sg433
(dp534
g44
(irep_db
FileMeta
p535
(dp536
g438
S'50'
p537
sg439
S'libsys_diff.c'
p538
sg441
S'libsys.c'
p539
sg443
S'54'
p540
sbssg445
S'Clark'
p541
sbs(S'proj1'
p542
g26
tp543
(irep_db
CommitMeta
p544
(dp545
g425
g426
(S'\x07\xd1\n\x01\x00\x00\x00\x00\x00\x00'
p546
tp547
Rp548
sg430
(g542
g26
tp549
sg432
g542
sg433
(dp550
S'11'
p551
g519
ssg445
S'Martin'
p552
sbs(S'proj1'
p553
S'11'
p554
tp555
(irep_db
CommitMeta
p556
(dp557
g425
g426
(S'\x07\xd2\x0b\x01\x00\x00\x00\x00\x00\x00'
p558
tp559
Rp560
sg430
(g553
g554
tp561
sg432
g553
sg433
(dp562
S'12'
p563
(irep_db
FileMeta
p564
(dp565
g438
S'24'
p566
sg439
S'dev_diff.c'
p567
sg441
S'dev.c'
p568
sg443
S'34'
p569
sbssg445
S'Lee'
p570
sbs(S'proj0'
p571
S'10'
p572
tp573
(irep_db
CommitMeta
p574
(dp575
g425
g426
(S'\x07\xd2\x08\x01\x00\x00\x00\x00\x00\x00'
p576
tp577
Rp578
sg430
(g571
g572
tp579
sg432
g571
sg433
(dp580
g44
g535
ssg445
S'Moore'
p581
sbs(S'proj1'
p582
g98
tp583
(irep_db
CommitMeta
p584
(dp585
g425
g426
(S'\x07\xd2\x07\x01\x00\x00\x00\x00\x00\x00'
p586
tp587
Rp588
sg430
(g582
g98
tp589
sg432
g582
sg433
(dp590
S'13'
p591
(irep_db
FileMeta
p592
(dp593
g438
S'19'
p594
sg439
S'libcrypt_diff.c'
p595
sg441
S'libcrypt.c'
p596
sg443
S'32'
p597
sbssg445
S'White'
p598
sbs(S'proj1'
p599
g37
tp600
(irep_db
CommitMeta
p601
(dp602
g425
g426
(S'\x07\xd1\x04\x01\x00\x00\x00\x00\x00\x00'
p603
tp604
Rp605
sg430
(g599
g37
tp606
sg432
g599
sg433
(dp607
S'13'
p608
g592
ssg445
S'White'
p609
sbs(S'proj0'
p610
g57
tp611
(irep_db
CommitMeta
p612
(dp613
g425
g426
(S'\x07\xd2\x04\x01\x00\x00\x00\x00\x00\x00'
p614
tp615
Rp616
sg430
(g610
g57
tp617
sg432
g610
sg433
(dp618
g37
(irep_db
FileMeta
p619
(dp620
g438
S'22'
p621
sg439
S'net_diff.c'
p622
sg441
S'net.c'
p623
sg443
S'30'
p624
sbssg445
S'Garcia'
p625
sbs(S'proj0'
p626
g83
tp627
(irep_db
CommitMeta
p628
(dp629
g425
g426
(S'\x07\xd2\x02\x01\x00\x00\x00\x00\x00\x00'
p630
tp631
Rp632
sg430
(g626
g83
tp633
sg432
g626
sg433
(dp634
g26
(irep_db
FileMeta
p635
(dp636
g438
S'12'
p637
sg439
S'crypt_diff.c'
p638
sg441
S'crypt.c'
p639
sg443
S'22'
p640
sbssg445
S'Parker'
p641
sbs(S'proj1'
p642
g44
tp643
(irep_db
CommitMeta
p644
(dp645
g425
g426
(S'\x07\xd1\x0c\x01\x00\x00\x00\x00\x00\x00'
p646
tp647
Rp648
sg430
(g642
g44
tp649
sg432
g642
sg433
(dp650
S'12'
p651
g564
ssg445
S'Harris'
p652
sbs(S'proj1'
p653
S'12'
p654
tp655
(irep_db
CommitMeta
p656
(dp657
g425
g426
(S'\x07\xd3\x01\x01\x00\x00\x00\x00\x00\x00'
p658
tp659
Rp660
sg430
(g653
g654
tp661
sg432
g653
sg433
(dp662
S'15'
p663
(irep_db
FileMeta
p664
(dp665
g438
S'20'
p666
sg439
S'ndis_diff.c'
p667
sg441
S'ndis.c'
p668
sg443
S'25'
p669
sbssg445
S'Johnson'
p670
sbs(S'proj0'
p671
g53
tp672
(irep_db
CommitMeta
p673
(dp674
g425
g426
(S'\x07\xd1\x05\x01\x00\x00\x00\x00\x00\x00'
p675
tp676
Rp677
sg430
(g671
g53
tp678
sg432
g671
sg433
(dp679
g53
g475
ssg445
S'Clark'
p680
sbs(S'proj1'
p681
g53
tp682
(irep_db
CommitMeta
p683
(dp684
g425
g426
(S'\x07\xd1\x06\x01\x00\x00\x00\x00\x00\x00'
p685
tp686
Rp687
sg430
(g681
g53
tp688
sg432
g681
sg433
(dp689
S'13'
p690
g592
ssg445
S'Harris'
p691
sbs(S'proj0'
p692
g44
tp693
(irep_db
CommitMeta
p694
(dp695
g425
g426
(S'\x07\xd1\x0b\x01\x00\x00\x00\x00\x00\x00'
p696
tp697
Rp698
sg430
(g692
g44
tp699
sg432
g692
sg433
(dp700
g43
g491
ssg445
S'Hall'
p701
sbs(S'proj1'
p702
g83
tp703
(irep_db
CommitMeta
p704
(dp705
g425
g426
(S'\x07\xd2\x03\x01\x00\x00\x00\x00\x00\x00'
p706
tp707
Rp708
sg430
(g702
g83
tp709
sg432
g702
sg433
(dp710
S'15'
p711
g664
ssg445
S'Scott'
p712
sbs(S'proj0'
p713
g37
tp714
(irep_db
CommitMeta
p715
(dp716
g425
g426
(S'\x07\xd1\x03\x01\x00\x00\x00\x00\x00\x00'
p717
tp718
Rp719
sg430
(g713
g37
tp720
sg432
g713
sg433
(dp721
g37
g619
ssg445
S'Parker'
p722
sbs(S'proj0'
p723
S'12'
p724
tp725
(irep_db
CommitMeta
p726
(dp727
g425
g426
(S'\x07\xd2\x0c\x01\x00\x00\x00\x00\x00\x00'
p728
tp729
Rp730
sg430
(g723
g724
tp731
sg432
g723
sg433
(dp732
g26
g635
ssg445
S'Hall'
p733
sbs(S'proj0'
p734
g26
tp735
(irep_db
CommitMeta
p736
(dp737
g425
g426
(S'\x07\xd1\t\x01\x00\x00\x00\x00\x00\x00'
p738
tp739
Rp740
sg430
(g734
g26
tp741
sg432
g734
sg433
(dp742
g16
(irep_db
FileMeta
p743
(dp744
g438
S'17'
p745
sg439
S'bt_diff.c'
p746
sg441
S'bt.c'
p747
sg443
S'25'
p748
sbssg445
S'Moore'
p749
sbs(S'proj0'
p750
g16
tp751
(irep_db
CommitMeta
p752
(dp753
g425
g426
(S'\x07\xd1\x01\x01\x00\x00\x00\x00\x00\x00'
p754
tp755
Rp756
sg430
(g750
g16
tp757
sg432
g750
sg433
(dp758
g16
g743
ssg445
S'alex'
p759
sbssb.